target datalayout = "e-m:e-p270:32:32-p271:32:32-p272:64:64-i64:64-i128:128-f80:128-n8:16:32:64-S128"
target triple = "x86_64-pc-linux-gnu"

%struct.pmix_list_t = type { %struct.pmix_object_t, %struct.pmix_list_item_t, i64 }
%struct.pmix_object_t = type { %union.pthread_mutex_t, ptr, i32, %struct.pmix_tma }
%union.pthread_mutex_t = type { %struct.__pthread_mutex_s }
%struct.__pthread_mutex_s = type { i32, i32, i32, i32, i32, i16, i16, %struct.__pthread_internal_list }
%struct.__pthread_internal_list = type { ptr, ptr }
%struct.pmix_tma = type { ptr, ptr, ptr, ptr, ptr, ptr, ptr, ptr }
%struct.pmix_list_item_t = type { %struct.pmix_object_t, ptr, ptr, i32 }
%struct.pmix_cli_result_t = type { %struct.pmix_object_t, %struct.pmix_list_t, ptr }
%struct.pmix_cli_item_t = type { %struct.pmix_list_item_t, ptr, ptr }

@.str.43 = private unnamed_addr constant [18 x i8] c"allow-run-as-root\00", align 1
@prte_allow_run_as_root = external global i8, align 1
@.str.205 = private unnamed_addr constant [23 x i8] c"PRTE_ALLOW_RUN_AS_ROOT\00", align 1
@.str.206 = private unnamed_addr constant [31 x i8] c"PRTE_ALLOW_RUN_AS_ROOT_CONFIRM\00", align 1
@.str.207 = private unnamed_addr constant [2 x i8] c"1\00", align 1

; Function Attrs: inlinehint nounwind uwtable
define internal ptr @pmix_cmd_line_get_param(ptr noundef %0, ptr noundef %1) #4 {
  %3 = alloca ptr, align 8
  %4 = alloca ptr, align 8
  %5 = alloca ptr, align 8
  %6 = alloca ptr, align 8
  %7 = alloca i32, align 4
  store ptr %0, ptr %4, align 8, !tbaa !8
  store ptr %1, ptr %5, align 8, !tbaa !11
  call void @llvm.lifetime.start.p0(i64 8, ptr %6) #9
  %8 = load ptr, ptr %4, align 8, !tbaa !8
  %9 = getelementptr inbounds nuw %struct.pmix_cli_result_t, ptr %8, i32 0, i32 1
  %10 = getelementptr inbounds nuw %struct.pmix_list_t, ptr %9, i32 0, i32 1
  %11 = getelementptr inbounds nuw %struct.pmix_list_item_t, ptr %10, i32 0, i32 1
  %12 = load ptr, ptr %11, align 8, !tbaa !19
  store ptr %12, ptr %6, align 8, !tbaa !8
  br label %13

13:                                               ; preds = %29, %2
  %14 = load ptr, ptr %6, align 8, !tbaa !8
  %15 = load ptr, ptr %4, align 8, !tbaa !8
  %16 = getelementptr inbounds nuw %struct.pmix_cli_result_t, ptr %15, i32 0, i32 1
  %17 = getelementptr inbounds nuw %struct.pmix_list_t, ptr %16, i32 0, i32 1
  %18 = icmp ne ptr %14, %17
  br i1 %18, label %19, label %33

19:                                               ; preds = %13
  %20 = load ptr, ptr %6, align 8, !tbaa !8
  %21 = getelementptr inbounds nuw %struct.pmix_cli_item_t, ptr %20, i32 0, i32 1
  %22 = load ptr, ptr %21, align 8, !tbaa !28
  %23 = load ptr, ptr %5, align 8, !tbaa !11
  %24 = call i32 @strcmp(ptr noundef %22, ptr noundef %23) #10
  %25 = icmp eq i32 0, %24
  br i1 %25, label %26, label %28

26:                                               ; preds = %19
  %27 = load ptr, ptr %6, align 8, !tbaa !8
  store ptr %27, ptr %3, align 8
  store i32 1, ptr %7, align 4
  br label %34

28:                                               ; preds = %19
  br label %29

29:                                               ; preds = %28
  %30 = load ptr, ptr %6, align 8, !tbaa !8
  %31 = getelementptr inbounds nuw %struct.pmix_list_item_t, ptr %30, i32 0, i32 1
  %32 = load ptr, ptr %31, align 8, !tbaa !34
  store ptr %32, ptr %6, align 8, !tbaa !8
  br label %13, !llvm.loop !71

33:                                               ; preds = %13
  store ptr null, ptr %3, align 8
  store i32 1, ptr %7, align 4
  br label %34

34:                                               ; preds = %33, %26
  call void @llvm.lifetime.end.p0(i64 8, ptr %6) #9
  %35 = load ptr, ptr %3, align 8
  ret ptr %35
}

; Function Attrs: inlinehint nounwind uwtable
define internal zeroext i1 @pmix_cmd_line_is_taken(ptr noundef %0, ptr noundef %1) #4 {
  %3 = alloca i1, align 1
  %4 = alloca ptr, align 8
  %5 = alloca ptr, align 8
  store ptr %0, ptr %4, align 8, !tbaa !8
  store ptr %1, ptr %5, align 8, !tbaa !11
  %6 = load ptr, ptr %4, align 8, !tbaa !8
  %7 = load ptr, ptr %5, align 8, !tbaa !11
  %8 = call ptr @pmix_cmd_line_get_param(ptr noundef %6, ptr noundef %7)
  %9 = icmp eq ptr null, %8
  br i1 %9, label %10, label %11

10:                                               ; preds = %2
  store i1 false, ptr %3, align 1
  br label %12

11:                                               ; preds = %2
  store i1 true, ptr %3, align 1
  br label %12

12:                                               ; preds = %11, %10
  %13 = load i1, ptr %3, align 1
  ret i1 %13
}

; Function Attrs: nounwind uwtable
define internal void @allow_run_as_root(ptr noundef %0) #0 {
  %2 = alloca ptr, align 8
  %3 = alloca ptr, align 8
  %4 = alloca ptr, align 8
  %5 = alloca i32, align 4
  store ptr %0, ptr %2, align 8, !tbaa !8
  call void @llvm.lifetime.start.p0(i64 8, ptr %3) #9
  call void @llvm.lifetime.start.p0(i64 8, ptr %4) #9
  %6 = load ptr, ptr %2, align 8, !tbaa !8
  %7 = call zeroext i1 @pmix_cmd_line_is_taken(ptr noundef %6, ptr noundef @.str.43)
  br i1 %7, label %8, label %9

8:                                                ; preds = %1
  store i8 1, ptr @prte_allow_run_as_root, align 1, !tbaa !9
  store i32 1, ptr %5, align 4
  br label %26

9:                                                ; preds = %1
  %10 = call ptr @getenv(ptr noundef @.str.205) #9
  store ptr %10, ptr %3, align 8, !tbaa !11
  %11 = icmp ne ptr null, %10
  br i1 %11, label %12, label %25

12:                                               ; preds = %9
  %13 = call ptr @getenv(ptr noundef @.str.206) #9
  store ptr %13, ptr %4, align 8, !tbaa !11
  %14 = icmp ne ptr null, %13
  br i1 %14, label %15, label %25

15:                                               ; preds = %12
  %16 = load ptr, ptr %3, align 8, !tbaa !11
  %17 = call i32 @strcmp(ptr noundef %16, ptr noundef @.str.207) #10
  %18 = icmp eq i32 0, %17
  br i1 %18, label %19, label %24

19:                                               ; preds = %15
  %20 = load ptr, ptr %4, align 8, !tbaa !11
  %21 = call i32 @strcmp(ptr noundef %20, ptr noundef @.str.207) #10
  %22 = icmp eq i32 0, %21
  br i1 %22, label %23, label %24

23:                                               ; preds = %19
  store i8 1, ptr @prte_allow_run_as_root, align 1, !tbaa !9
  store i32 1, ptr %5, align 4
  br label %26

24:                                               ; preds = %19, %15
  br label %25

25:                                               ; preds = %24, %12, %9
  call void @prte_schizo_base_root_error_msg()
  store i32 0, ptr %5, align 4
  br label %26

26:                                               ; preds = %25, %23, %8
  call void @llvm.lifetime.end.p0(i64 8, ptr %4) #9
  call void @llvm.lifetime.end.p0(i64 8, ptr %3) #9
  %27 = load i32, ptr %5, align 4
  switch i32 %27, label %29 [
    i32 0, label %28
    i32 1, label %28
  ]

28:                                               ; preds = %26, %26
  ret void

29:                                               ; preds = %26
  unreachable
}